target datalayout = "e-m:e-p270:32:32-p271:32:32-p272:64:64-i64:64-i128:128-f80:128-n8:16:32:64-S128"
target triple = "x86_64-pc-linux-gnu"

%class.btSequentialImpulseConstraintSolverMt = type { %class.btSequentialImpulseConstraintSolver, %struct.btBatchedConstraints, %struct.btBatchedConstraints, i32, i8, i8, [2 x i8], %class.btAlignedObjectArray.10, %class.btAlignedObjectArray.2, %class.btSpinMutex, [64 x i8], %class.btSpinMutex, %class.btAlignedObjectArray.8 }
%class.btSequentialImpulseConstraintSolver = type { %class.btConstraintSolver, %class.btAlignedObjectArray, %class.btAlignedObjectArray.0, %class.btAlignedObjectArray.0, %class.btAlignedObjectArray.0, %class.btAlignedObjectArray.0, %class.btAlignedObjectArray.2, %class.btAlignedObjectArray.2, %class.btAlignedObjectArray.2, %class.btAlignedObjectArray.4, i32, i32, %class.btAlignedObjectArray.2, ptr, ptr, ptr, i32, float, i64, %struct.btSolverAnalyticsData }
%class.btConstraintSolver = type { ptr }
%class.btAlignedObjectArray = type <{ [4 x i8], i32, i32, [4 x i8], ptr, i8, [7 x i8] }>
%class.btAlignedObjectArray.0 = type <{ [4 x i8], i32, i32, [4 x i8], ptr, i8, [7 x i8] }>
%class.btAlignedObjectArray.4 = type <{ [4 x i8], i32, i32, [4 x i8], ptr, i8, [7 x i8] }>
%struct.btSolverAnalyticsData = type { i32, i32, i32, i32, i32, double }
%struct.btBatchedConstraints = type { %class.btAlignedObjectArray.2, %class.btAlignedObjectArray.6, %class.btAlignedObjectArray.6, %class.btAlignedObjectArray.8, %class.btAlignedObjectArray.2, ptr }
%class.btAlignedObjectArray.6 = type <{ [4 x i8], i32, i32, [4 x i8], ptr, i8, [7 x i8] }>
%class.btAlignedObjectArray.10 = type <{ [4 x i8], i32, i32, [4 x i8], ptr, i8, [7 x i8] }>
%class.btAlignedObjectArray.2 = type <{ [4 x i8], i32, i32, [4 x i8], ptr, i8, [7 x i8] }>
%class.btSpinMutex = type { i32 }
%class.btAlignedObjectArray.8 = type <{ [4 x i8], i32, i32, [4 x i8], ptr, i8, [7 x i8] }>
%class.CProfileSample = type { i8 }
%struct.SetupContactConstraintsLoop = type { %class.btIParallelForBody, ptr, ptr, ptr }
%class.btIParallelForBody = type { ptr }
%"struct.btBatchedConstraints::Range" = type { i32, i32 }

@.str.2 = private unnamed_addr constant [27 x i8] c"setupAllContactConstraints\00", align 1
@_ZTV18btIParallelForBody = linkonce_odr dso_local unnamed_addr constant { [5 x ptr] } { [5 x ptr] [ptr null, ptr @_ZTI18btIParallelForBody, ptr @_ZN18btIParallelForBodyD2Ev, ptr @_ZN18btIParallelForBodyD0Ev, ptr @__cxa_pure_virtual] }, comdat, align 8

; Function Attrs: inlinehint mustprogress nounwind uwtable
define linkonce_odr dso_local void @_ZN18btIParallelForBodyC2Ev(ptr noundef nonnull align 8 dereferenceable(8) %0) unnamed_addr #4 comdat align 2 {
  %2 = alloca ptr, align 8
  store ptr %0, ptr %2, align 8, !tbaa !338
  %3 = load ptr, ptr %2, align 8
  store ptr getelementptr inbounds inrange(-16, 24) ({ [5 x ptr] }, ptr @_ZTV18btIParallelForBody, i32 0, i32 0, i32 2), ptr %3, align 8, !tbaa !14
  ret void
}

; Function Attrs: inlinehint mustprogress nounwind uwtable
define linkonce_odr dso_local noundef i32 @_ZNK20btAlignedObjectArrayI18btSolverConstraintE4sizeEv(ptr noundef nonnull align 8 dereferenceable(25) %0) #4 comdat align 2 {
  %2 = alloca ptr, align 8
  store ptr %0, ptr %2, align 8, !tbaa !98
  %3 = load ptr, ptr %2, align 8
  %4 = getelementptr inbounds nuw %class.btAlignedObjectArray.0, ptr %3, i32 0, i32 1
  %5 = load i32, ptr %4, align 4, !tbaa !128
  ret i32 %5
}

; Function Attrs: mustprogress nounwind uwtable
define linkonce_odr dso_local void @_ZN18btIParallelForBodyD2Ev(ptr noundef nonnull align 8 dereferenceable(8) %0) unnamed_addr #1 comdat align 2 {
  %2 = alloca ptr, align 8
  store ptr %0, ptr %2, align 8, !tbaa !338
  ret void
}

; Function Attrs: inlinehint mustprogress nounwind uwtable
define linkonce_odr dso_local noundef nonnull align 4 dereferenceable(8) ptr @_ZNK20btAlignedObjectArrayIN20btBatchedConstraints5RangeEEixEi(ptr noundef nonnull align 8 dereferenceable(25) %0, i32 noundef %1) #4 comdat align 2 {
  %3 = alloca ptr, align 8
  %4 = alloca i32, align 4
  store ptr %0, ptr %3, align 8, !tbaa !124
  store i32 %1, ptr %4, align 4, !tbaa !9
  %5 = load ptr, ptr %3, align 8
  %6 = getelementptr inbounds nuw %class.btAlignedObjectArray.6, ptr %5, i32 0, i32 4
  %7 = load ptr, ptr %6, align 8, !tbaa !127
  %8 = load i32, ptr %4, align 4, !tbaa !9
  %9 = sext i32 %8 to i64
  %10 = getelementptr inbounds %"struct.btBatchedConstraints::Range", ptr %7, i64 %9
  ret ptr %10
}

; Function Attrs: inlinehint mustprogress nounwind uwtable
define linkonce_odr dso_local noundef nonnull align 4 dereferenceable(4) ptr @_ZNK20btAlignedObjectArrayIiEixEi(ptr noundef nonnull align 8 dereferenceable(25) %0, i32 noundef %1) #4 comdat align 2 {
  %3 = alloca ptr, align 8
  %4 = alloca i32, align 4
  store ptr %0, ptr %3, align 8, !tbaa !56
  store i32 %1, ptr %4, align 4, !tbaa !9
  %5 = load ptr, ptr %3, align 8
  %6 = getelementptr inbounds nuw %class.btAlignedObjectArray.2, ptr %5, i32 0, i32 4
  %7 = load ptr, ptr %6, align 8, !tbaa !106
  %8 = load i32, ptr %4, align 4, !tbaa !9
  %9 = sext i32 %8 to i64
  %10 = getelementptr inbounds i32, ptr %7, i64 %9
  ret ptr %10
}

; Function Attrs: inlinehint mustprogress nounwind uwtable
define linkonce_odr dso_local noundef i32 @_ZNK20btAlignedObjectArrayIN20btBatchedConstraints5RangeEE4sizeEv(ptr noundef nonnull align 8 dereferenceable(25) %0) #4 comdat align 2 {
  %2 = alloca ptr, align 8
  store ptr %0, ptr %2, align 8, !tbaa !124
  %3 = load ptr, ptr %2, align 8
  %4 = getelementptr inbounds nuw %class.btAlignedObjectArray.6, ptr %3, i32 0, i32 1
  %5 = load i32, ptr %4, align 4, !tbaa !126
  ret i32 %5
}

; Function Attrs: mustprogress nounwind uwtable
define linkonce_odr dso_local void @_ZN27SetupContactConstraintsLoopC2EP37btSequentialImpulseConstraintSolverMtPK20btBatchedConstraintsRK19btContactSolverInfo(ptr noundef nonnull align 8 dereferenceable(32) %0, ptr noundef %1, ptr noundef %2, ptr noundef nonnull align 4 dereferenceable(128) %3) unnamed_addr #1 comdat align 2 {
  %5 = alloca ptr, align 8
  %6 = alloca ptr, align 8
  %7 = alloca ptr, align 8
  %8 = alloca ptr, align 8
  store ptr %0, ptr %5, align 8, !tbaa !117
  store ptr %1, ptr %6, align 8, !tbaa !12
  store ptr %2, ptr %7, align 8, !tbaa !51
  store ptr %3, ptr %8, align 8, !tbaa !66
  %9 = load ptr, ptr %5, align 8
  call void @_ZN18btIParallelForBodyC2Ev(ptr noundef nonnull align 8 dereferenceable(8) %9) #16
  store ptr getelementptr inbounds inrange(-16, 24) ({ [5 x ptr] }, ptr @_ZTV27SetupContactConstraintsLoop, i32 0, i32 0, i32 2), ptr %9, align 8, !tbaa !14
  %10 = load ptr, ptr %6, align 8, !tbaa !12
  %11 = getelementptr inbounds nuw %struct.SetupContactConstraintsLoop, ptr %9, i32 0, i32 1
  store ptr %10, ptr %11, align 8, !tbaa !119
  %12 = load ptr, ptr %7, align 8, !tbaa !51
  %13 = getelementptr inbounds nuw %struct.SetupContactConstraintsLoop, ptr %9, i32 0, i32 2
  store ptr %12, ptr %13, align 8, !tbaa !122
  %14 = load ptr, ptr %8, align 8, !tbaa !66
  %15 = getelementptr inbounds nuw %struct.SetupContactConstraintsLoop, ptr %9, i32 0, i32 3
  store ptr %14, ptr %15, align 8, !tbaa !123
  ret void
}

; Function Attrs: mustprogress uwtable
define dso_local void @_ZN37btSequentialImpulseConstraintSolverMt26setupAllContactConstraintsERK19btContactSolverInfo(ptr noundef nonnull align 8 dereferenceable(920) %0, ptr noundef nonnull align 4 dereferenceable(128) %1) #2 align 2 personality ptr @__gxx_personality_v0 {
  %3 = alloca ptr, align 8
  %4 = alloca ptr, align 8
  %5 = alloca %class.CProfileSample, align 1
  %6 = alloca ptr, align 8
  %7 = alloca %struct.SetupContactConstraintsLoop, align 8
  %8 = alloca ptr, align 8
  %9 = alloca i32, align 4
  %10 = alloca i32, align 4
  %11 = alloca i32, align 4
  %12 = alloca ptr, align 8
  %13 = alloca i32, align 4
  %14 = alloca i32, align 4
  store ptr %0, ptr %3, align 8, !tbaa !12
  store ptr %1, ptr %4, align 8, !tbaa !66
  %15 = load ptr, ptr %3, align 8
  call void @llvm.lifetime.start.p0(i64 1, ptr %5) #16
  call void @_ZN14CProfileSampleC1EPKc(ptr noundef nonnull align 1 dereferenceable(1) %5, ptr noundef @.str.2)
  %16 = getelementptr inbounds nuw %class.btSequentialImpulseConstraintSolverMt, ptr %15, i32 0, i32 4
  %17 = load i8, ptr %16, align 4, !tbaa !49, !range !109, !noundef !110
  %18 = trunc i8 %17 to i1
  br i1 %18, label %19, label %80

19:                                               ; preds = %2
  call void @llvm.lifetime.start.p0(i64 8, ptr %6) #16
  %20 = getelementptr inbounds nuw %class.btSequentialImpulseConstraintSolverMt, ptr %15, i32 0, i32 1
  store ptr %20, ptr %6, align 8, !tbaa !51
  call void @llvm.lifetime.start.p0(i64 32, ptr %7) #16
  %21 = load ptr, ptr %6, align 8, !tbaa !51
  %22 = load ptr, ptr %4, align 8, !tbaa !66
  invoke void @_ZN27SetupContactConstraintsLoopC2EP37btSequentialImpulseConstraintSolverMtPK20btBatchedConstraintsRK19btContactSolverInfo(ptr noundef nonnull align 8 dereferenceable(32) %7, ptr noundef %15, ptr noundef %21, ptr noundef nonnull align 4 dereferenceable(128) %22)
          to label %23 unwind label %32

23:                                               ; preds = %19
  call void @llvm.lifetime.start.p0(i64 4, ptr %10) #16
  store i32 0, ptr %10, align 4, !tbaa !9
  br label %24

24:                                               ; preds = %60, %23
  %25 = load i32, ptr %10, align 4, !tbaa !9
  %26 = load ptr, ptr %6, align 8, !tbaa !51
  %27 = getelementptr inbounds nuw %struct.btBatchedConstraints, ptr %26, i32 0, i32 2
  %28 = invoke noundef i32 @_ZNK20btAlignedObjectArrayIN20btBatchedConstraints5RangeEE4sizeEv(ptr noundef nonnull align 8 dereferenceable(25) %27)
          to label %29 unwind label %36

29:                                               ; preds = %24
  %30 = icmp slt i32 %25, %28
  br i1 %30, label %40, label %31

31:                                               ; preds = %29
  call void @llvm.lifetime.end.p0(i64 4, ptr %10) #16
  br label %78

32:                                               ; preds = %19
  %33 = landingpad { ptr, i32 }
          cleanup
  %34 = extractvalue { ptr, i32 } %33, 0
  store ptr %34, ptr %8, align 8
  %35 = extractvalue { ptr, i32 } %33, 1
  store i32 %35, ptr %9, align 4
  br label %79

36:                                               ; preds = %24
  %37 = landingpad { ptr, i32 }
          cleanup
  %38 = extractvalue { ptr, i32 } %37, 0
  store ptr %38, ptr %8, align 8
  %39 = extractvalue { ptr, i32 } %37, 1
  store i32 %39, ptr %9, align 4
  br label %77

40:                                               ; preds = %29
  call void @llvm.lifetime.start.p0(i64 4, ptr %11) #16
  %41 = load ptr, ptr %6, align 8, !tbaa !51
  %42 = getelementptr inbounds nuw %struct.btBatchedConstraints, ptr %41, i32 0, i32 4
  %43 = load i32, ptr %10, align 4, !tbaa !9
  %44 = invoke noundef nonnull align 4 dereferenceable(4) ptr @_ZNK20btAlignedObjectArrayIiEixEi(ptr noundef nonnull align 8 dereferenceable(25) %42, i32 noundef %43)
          to label %45 unwind label %63

45:                                               ; preds = %40
  %46 = load i32, ptr %44, align 4, !tbaa !9
  store i32 %46, ptr %11, align 4, !tbaa !9
  call void @llvm.lifetime.start.p0(i64 8, ptr %12) #16
  %47 = load ptr, ptr %6, align 8, !tbaa !51
  %48 = getelementptr inbounds nuw %struct.btBatchedConstraints, ptr %47, i32 0, i32 2
  %49 = load i32, ptr %11, align 4, !tbaa !9
  %50 = invoke noundef nonnull align 4 dereferenceable(8) ptr @_ZNK20btAlignedObjectArrayIN20btBatchedConstraints5RangeEEixEi(ptr noundef nonnull align 8 dereferenceable(25) %48, i32 noundef %49)
          to label %51 unwind label %67

51:                                               ; preds = %45
  store ptr %50, ptr %12, align 8, !tbaa !111
  call void @llvm.lifetime.start.p0(i64 4, ptr %13) #16
  store i32 1, ptr %13, align 4, !tbaa !9
  %52 = load ptr, ptr %12, align 8, !tbaa !111
  %53 = getelementptr inbounds nuw %"struct.btBatchedConstraints::Range", ptr %52, i32 0, i32 0
  %54 = load i32, ptr %53, align 4, !tbaa !112
  %55 = load ptr, ptr %12, align 8, !tbaa !111
  %56 = getelementptr inbounds nuw %"struct.btBatchedConstraints::Range", ptr %55, i32 0, i32 1
  %57 = load i32, ptr %56, align 4, !tbaa !114
  %58 = load i32, ptr %13, align 4, !tbaa !9
  invoke void @_Z13btParallelForiiiRK18btIParallelForBody(i32 noundef %54, i32 noundef %57, i32 noundef %58, ptr noundef nonnull align 8 dereferenceable(8) %7)
          to label %59 unwind label %71

59:                                               ; preds = %51
  call void @llvm.lifetime.end.p0(i64 4, ptr %13) #16
  call void @llvm.lifetime.end.p0(i64 8, ptr %12) #16
  call void @llvm.lifetime.end.p0(i64 4, ptr %11) #16
  br label %60

60:                                               ; preds = %59
  %61 = load i32, ptr %10, align 4, !tbaa !9
  %62 = add nsw i32 %61, 1
  store i32 %62, ptr %10, align 4, !tbaa !9
  br label %24, !llvm.loop !115

63:                                               ; preds = %40
  %64 = landingpad { ptr, i32 }
          cleanup
  %65 = extractvalue { ptr, i32 } %64, 0
  store ptr %65, ptr %8, align 8
  %66 = extractvalue { ptr, i32 } %64, 1
  store i32 %66, ptr %9, align 4
  br label %76

67:                                               ; preds = %45
  %68 = landingpad { ptr, i32 }
          cleanup
  %69 = extractvalue { ptr, i32 } %68, 0
  store ptr %69, ptr %8, align 8
  %70 = extractvalue { ptr, i32 } %68, 1
  store i32 %70, ptr %9, align 4
  br label %75

71:                                               ; preds = %51
  %72 = landingpad { ptr, i32 }
          cleanup
  %73 = extractvalue { ptr, i32 } %72, 0
  store ptr %73, ptr %8, align 8
  %74 = extractvalue { ptr, i32 } %72, 1
  store i32 %74, ptr %9, align 4
  call void @llvm.lifetime.end.p0(i64 4, ptr %13) #16
  br label %75

75:                                               ; preds = %71, %67
  call void @llvm.lifetime.end.p0(i64 8, ptr %12) #16
  br label %76

76:                                               ; preds = %75, %63
  call void @llvm.lifetime.end.p0(i64 4, ptr %11) #16
  br label %77

77:                                               ; preds = %76, %36
  call void @llvm.lifetime.end.p0(i64 4, ptr %10) #16
  call void @_ZN18btIParallelForBodyD2Ev(ptr noundef nonnull align 8 dereferenceable(32) %7) #16
  br label %79

78:                                               ; preds = %31
  call void @_ZN18btIParallelForBodyD2Ev(ptr noundef nonnull align 8 dereferenceable(32) %7) #16
  call void @llvm.lifetime.end.p0(i64 32, ptr %7) #16
  call void @llvm.lifetime.end.p0(i64 8, ptr %6) #16
  br label %100

79:                                               ; preds = %77, %32
  call void @llvm.lifetime.end.p0(i64 32, ptr %7) #16
  call void @llvm.lifetime.end.p0(i64 8, ptr %6) #16
  br label %101

80:                                               ; preds = %2
  call void @llvm.lifetime.start.p0(i64 4, ptr %14) #16
  store i32 0, ptr %14, align 4, !tbaa !9
  br label %81

81:                                               ; preds = %96, %80
  %82 = load i32, ptr %14, align 4, !tbaa !9
  %83 = getelementptr inbounds nuw %class.btSequentialImpulseConstraintSolver, ptr %15, i32 0, i32 2
  %84 = invoke noundef i32 @_ZNK20btAlignedObjectArrayI18btSolverConstraintE4sizeEv(ptr noundef nonnull align 8 dereferenceable(25) %83)
          to label %85 unwind label %88

85:                                               ; preds = %81
  %86 = icmp slt i32 %82, %84
  br i1 %86, label %92, label %87

87:                                               ; preds = %85
  call void @llvm.lifetime.end.p0(i64 4, ptr %14) #16
  br label %99

88:                                               ; preds = %92, %81
  %89 = landingpad { ptr, i32 }
          cleanup
  %90 = extractvalue { ptr, i32 } %89, 0
  store ptr %90, ptr %8, align 8
  %91 = extractvalue { ptr, i32 } %89, 1
  store i32 %91, ptr %9, align 4
  call void @llvm.lifetime.end.p0(i64 4, ptr %14) #16
  br label %101

92:                                               ; preds = %85
  %93 = load i32, ptr %14, align 4, !tbaa !9
  %94 = load ptr, ptr %4, align 8, !tbaa !66
  invoke void @_ZN37btSequentialImpulseConstraintSolverMt31internalSetupContactConstraintsEiRK19btContactSolverInfo(ptr noundef nonnull align 8 dereferenceable(920) %15, i32 noundef %93, ptr noundef nonnull align 4 dereferenceable(128) %94)
          to label %95 unwind label %88

95:                                               ; preds = %92
  br label %96

96:                                               ; preds = %95
  %97 = load i32, ptr %14, align 4, !tbaa !9
  %98 = add nsw i32 %97, 1
  store i32 %98, ptr %14, align 4, !tbaa !9
  br label %81, !llvm.loop !116

99:                                               ; preds = %87
  br label %100

100:                                              ; preds = %99, %78
  call void @_ZN14CProfileSampleD1Ev(ptr noundef nonnull align 1 dereferenceable(1) %5) #16
  call void @llvm.lifetime.end.p0(i64 1, ptr %5) #16
  ret void

101:                                              ; preds = %88, %79
  call void @_ZN14CProfileSampleD1Ev(ptr noundef nonnull align 1 dereferenceable(1) %5) #16
  call void @llvm.lifetime.end.p0(i64 1, ptr %5) #16
  br label %102

102:                                              ; preds = %101
  %103 = load ptr, ptr %8, align 8
  %104 = load i32, ptr %9, align 4
  %105 = insertvalue { ptr, i32 } poison, ptr %103, 0
  %106 = insertvalue { ptr, i32 } %105, i32 %104, 1
  resume { ptr, i32 } %106
}