; Function Attrs: mustprogress uwtable
define dso_local void @_ZN37btSequentialImpulseConstraintSolverMt26setupAllContactConstraintsERK19btContactSolverInfo(ptr noundef nonnull align 8 dereferenceable(920) %0, ptr noundef nonnull align 4 dereferenceable(128) %1) local_unnamed_addr #0 align 2 personality ptr @__gxx_personality_v0 {
  %3 = alloca %class.CProfileSample, align 1
  %4 = alloca %struct.SetupContactConstraintsLoop, align 8
  call void @llvm.lifetime.start.p0(i64 1, ptr nonnull %3) #16
  call void @_ZN14CProfileSampleC1EPKc(ptr noundef nonnull align 1 dereferenceable(1) %3, ptr noundef nonnull @.str.2)
  %5 = getelementptr inbounds nuw i8, ptr %0, i64 748
  %6 = load i8, ptr %5, align 4, !tbaa !61, !range !63, !noundef !64
  %7 = trunc nuw i8 %6 to i1
  br i1 %7, label %11, label %.preheader

.preheader:                                       ; preds = %2
  %8 = getelementptr inbounds nuw i8, ptr %0, i64 44
  %9 = load i32, ptr %8, align 4, !tbaa !94
  %10 = icmp sgt i32 %9, 0
  br i1 %10, label %.lr.ph, label %.loopexit

11:                                               ; preds = %2
  %12 = getelementptr inbounds nuw i8, ptr %0, i64 408
  call void @llvm.lifetime.start.p0(i64 32, ptr nonnull %4) #16
  store ptr getelementptr inbounds nuw inrange(-16, 24) (i8, ptr @_ZTV27SetupContactConstraintsLoop, i64 16), ptr %4, align 8, !tbaa !4
  %13 = getelementptr inbounds nuw i8, ptr %4, i64 8
  store ptr %0, ptr %13, align 8, !tbaa !95
  %14 = getelementptr inbounds nuw i8, ptr %4, i64 16
  store ptr %12, ptr %14, align 8, !tbaa !101
  %15 = getelementptr inbounds nuw i8, ptr %4, i64 24
  store ptr %1, ptr %15, align 8, !tbaa !102
  %16 = getelementptr inbounds nuw i8, ptr %0, i64 476
  %17 = load i32, ptr %16, align 4, !tbaa !23
  %18 = icmp sgt i32 %17, 0
  br i1 %18, label %.lr.ph24, label %._crit_edge

.lr.ph24:                                         ; preds = %11
  %19 = getelementptr inbounds nuw i8, ptr %0, i64 552
  %20 = getelementptr inbounds nuw i8, ptr %0, i64 488
  br label %21

._crit_edge:                                      ; preds = %31, %11
  call void @llvm.lifetime.end.p0(i64 32, ptr nonnull %4) #16
  br label %.loopexit

21:                                               ; preds = %.lr.ph24, %31
  %indvars.iv = phi i64 [ 0, %.lr.ph24 ], [ %indvars.iv.next, %31 ]
  %22 = load ptr, ptr %19, align 8, !tbaa !15
  %23 = getelementptr inbounds nuw i32, ptr %22, i64 %indvars.iv
  %24 = load i32, ptr %23, align 4, !tbaa !67
  %25 = load ptr, ptr %20, align 8, !tbaa !22
  %26 = sext i32 %24 to i64
  %27 = getelementptr inbounds %"struct.btBatchedConstraints::Range", ptr %25, i64 %26
  %28 = load i32, ptr %27, align 4, !tbaa !103
  %29 = getelementptr inbounds nuw i8, ptr %27, i64 4
  %30 = load i32, ptr %29, align 4, !tbaa !105
  invoke void @_Z13btParallelForiiiRK18btIParallelForBody(i32 noundef %28, i32 noundef %30, i32 noundef 1, ptr noundef nonnull align 8 dereferenceable(8) %4)
          to label %31 unwind label %35

31:                                               ; preds = %21
  %indvars.iv.next = add nuw nsw i64 %indvars.iv, 1
  %32 = load i32, ptr %16, align 4, !tbaa !23
  %33 = sext i32 %32 to i64
  %34 = icmp slt i64 %indvars.iv.next, %33
  br i1 %34, label %21, label %._crit_edge, !llvm.loop !106

35:                                               ; preds = %21
  %36 = landingpad { ptr, i32 }
          cleanup
  call void @llvm.lifetime.end.p0(i64 32, ptr nonnull %4) #16
  br label %43

37:                                               ; preds = %.lr.ph
  %38 = landingpad { ptr, i32 }
          cleanup
  br label %43

.lr.ph:                                           ; preds = %.preheader, %39
  %.022 = phi i32 [ %40, %39 ], [ 0, %.preheader ]
  invoke void @_ZN37btSequentialImpulseConstraintSolverMt31internalSetupContactConstraintsEiRK19btContactSolverInfo(ptr noundef nonnull align 8 dereferenceable(920) %0, i32 noundef %.022, ptr noundef nonnull align 4 dereferenceable(128) %1)
          to label %39 unwind label %37

39:                                               ; preds = %.lr.ph
  %40 = add nuw nsw i32 %.022, 1
  %41 = load i32, ptr %8, align 4, !tbaa !94
  %42 = icmp slt i32 %40, %41
  br i1 %42, label %.lr.ph, label %.loopexit, !llvm.loop !107

.loopexit:                                        ; preds = %39, %.preheader, %._crit_edge
  call void @_ZN14CProfileSampleD1Ev(ptr noundef nonnull align 1 dereferenceable(1) %3) #16
  call void @llvm.lifetime.end.p0(i64 1, ptr nonnull %3) #16
  ret void

43:                                               ; preds = %37, %35
  %.pn = phi { ptr, i32 } [ %36, %35 ], [ %38, %37 ]
  call void @_ZN14CProfileSampleD1Ev(ptr noundef nonnull align 1 dereferenceable(1) %3) #16
  call void @llvm.lifetime.end.p0(i64 1, ptr nonnull %3) #16
  resume { ptr, i32 } %.pn
}